target datalayout = "e-m:e-p270:32:32-p271:32:32-p272:64:64-i64:64-i128:128-f80:128-n8:16:32:64-S128"
target triple = "x86_64-pc-linux-gnu"

%struct.AVProbeData = type { ptr, ptr, i32, ptr }

; Function Attrs: nounwind uwtable
define internal i32 @vmd_probe(ptr noundef %0) #0 {
  %2 = alloca i32, align 4
  %3 = alloca ptr, align 8
  %4 = alloca i32, align 4
  %5 = alloca i32, align 4
  %6 = alloca i32, align 4
  %7 = alloca i32, align 4
  store ptr %0, ptr %3, align 8, !tbaa !4
  call void @llvm.lifetime.start.p0(i64 4, ptr %4) #5
  call void @llvm.lifetime.start.p0(i64 4, ptr %5) #5
  call void @llvm.lifetime.start.p0(i64 4, ptr %6) #5
  %8 = load ptr, ptr %3, align 8, !tbaa !4
  %9 = getelementptr inbounds nuw %struct.AVProbeData, ptr %8, i32 0, i32 2
  %10 = load i32, ptr %9, align 8, !tbaa !9
  %11 = icmp slt i32 %10, 806
  br i1 %11, label %12, label %13

12:                                               ; preds = %1
  store i32 0, ptr %2, align 4
  store i32 1, ptr %7, align 4
  br label %57

13:                                               ; preds = %1
  %14 = load ptr, ptr %3, align 8, !tbaa !4
  %15 = getelementptr inbounds nuw %struct.AVProbeData, ptr %14, i32 0, i32 1
  %16 = load ptr, ptr %15, align 8, !tbaa !13
  %17 = getelementptr inbounds i8, ptr %16, i64 0
  %18 = load i16, ptr %17, align 1, !tbaa !14
  %19 = zext i16 %18 to i32
  %20 = icmp ne i32 %19, 814
  br i1 %20, label %21, label %22

21:                                               ; preds = %13
  store i32 0, ptr %2, align 4
  store i32 1, ptr %7, align 4
  br label %57

22:                                               ; preds = %13
  %23 = load ptr, ptr %3, align 8, !tbaa !4
  %24 = getelementptr inbounds nuw %struct.AVProbeData, ptr %23, i32 0, i32 1
  %25 = load ptr, ptr %24, align 8, !tbaa !13
  %26 = getelementptr inbounds i8, ptr %25, i64 12
  %27 = load i16, ptr %26, align 1, !tbaa !14
  %28 = zext i16 %27 to i32
  store i32 %28, ptr %4, align 4, !tbaa !15
  %29 = load ptr, ptr %3, align 8, !tbaa !4
  %30 = getelementptr inbounds nuw %struct.AVProbeData, ptr %29, i32 0, i32 1
  %31 = load ptr, ptr %30, align 8, !tbaa !13
  %32 = getelementptr inbounds i8, ptr %31, i64 14
  %33 = load i16, ptr %32, align 1, !tbaa !14
  %34 = zext i16 %33 to i32
  store i32 %34, ptr %5, align 4, !tbaa !15
  %35 = load ptr, ptr %3, align 8, !tbaa !4
  %36 = getelementptr inbounds nuw %struct.AVProbeData, ptr %35, i32 0, i32 1
  %37 = load ptr, ptr %36, align 8, !tbaa !13
  %38 = getelementptr inbounds i8, ptr %37, i64 804
  %39 = load i16, ptr %38, align 1, !tbaa !14
  %40 = zext i16 %39 to i32
  store i32 %40, ptr %6, align 4, !tbaa !15
  %41 = load i32, ptr %4, align 4, !tbaa !15
  %42 = icmp ne i32 %41, 0
  br i1 %42, label %43, label %52

43:                                               ; preds = %22
  %44 = load i32, ptr %4, align 4, !tbaa !15
  %45 = icmp sgt i32 %44, 2048
  br i1 %45, label %52, label %46

46:                                               ; preds = %43
  %47 = load i32, ptr %5, align 4, !tbaa !15
  %48 = icmp ne i32 %47, 0
  br i1 %48, label %49, label %52

49:                                               ; preds = %46
  %50 = load i32, ptr %5, align 4, !tbaa !15
  %51 = icmp sgt i32 %50, 2048
  br i1 %51, label %52, label %56

52:                                               ; preds = %49, %46, %43, %22
  %53 = load i32, ptr %6, align 4, !tbaa !15
  %54 = icmp ne i32 %53, 22050
  br i1 %54, label %55, label %56

55:                                               ; preds = %52
  store i32 0, ptr %2, align 4
  store i32 1, ptr %7, align 4
  br label %57

56:                                               ; preds = %52, %49
  store i32 50, ptr %2, align 4
  store i32 1, ptr %7, align 4
  br label %57

57:                                               ; preds = %56, %55, %21, %12
  call void @llvm.lifetime.end.p0(i64 4, ptr %6) #5
  call void @llvm.lifetime.end.p0(i64 4, ptr %5) #5
  call void @llvm.lifetime.end.p0(i64 4, ptr %4) #5
  %58 = load i32, ptr %2, align 4
  ret i32 %58
}