; Function Attrs: mustprogress nofree norecurse nosync nounwind willreturn memory(read, inaccessiblemem: none) uwtable
define internal range(i32 0, 51) i32 @vmd_probe(ptr noundef readonly captures(none) %0) #0 {
  %2 = getelementptr inbounds nuw i8, ptr %0, i64 16
  %3 = load i32, ptr %2, align 8, !tbaa !4
  %4 = icmp slt i32 %3, 806
  br i1 %4, label %20, label %5

5:                                                ; preds = %1
  %6 = getelementptr inbounds nuw i8, ptr %0, i64 8
  %7 = load ptr, ptr %6, align 8, !tbaa !11
  %8 = load i16, ptr %7, align 1, !tbaa !12
  %.not = icmp eq i16 %8, 814
  br i1 %.not, label %9, label %20

9:                                                ; preds = %5
  %10 = getelementptr inbounds nuw i8, ptr %7, i64 12
  %11 = load i16, ptr %10, align 1, !tbaa !12
  %12 = getelementptr inbounds nuw i8, ptr %7, i64 14
  %13 = load i16, ptr %12, align 1, !tbaa !12
  %14 = getelementptr inbounds nuw i8, ptr %7, i64 804
  %15 = load i16, ptr %14, align 1, !tbaa !12
  %16 = add i16 %11, -2049
  %or.cond = icmp ult i16 %16, -2048
  %17 = add i16 %13, -2049
  %18 = icmp ult i16 %17, -2048
  %or.cond5 = select i1 %or.cond, i1 true, i1 %18
  %19 = icmp ne i16 %15, 22050
  %or.cond7 = select i1 %or.cond5, i1 %19, i1 false
  %. = select i1 %or.cond7, i32 0, i32 50
  br label %20

20:                                               ; preds = %9, %5, %1
  %.0 = phi i32 [ 0, %1 ], [ 0, %5 ], [ %., %9 ]
  ret i32 %.0
}